; Function Attrs: nounwind uwtable
define nonnull ptr @l_Lean_Omega_Constraint_sat_x27___boxed(ptr noundef %0, ptr noundef %1, ptr noundef %2) local_unnamed_addr #1 {
  %4 = tail call ptr @l_Lean_Omega_IntList_dot(ptr noundef %1, ptr noundef %2) #4
  %5 = tail call zeroext i8 @l_Lean_Omega_Constraint_sat(ptr noundef readonly %0, ptr noundef %4)
  %6 = ptrtoint ptr %4 to i64
  %7 = and i64 %6, 1
  %.not.i9 = icmp eq i64 %7, 0
  br i1 %.not.i9, label %8, label %l_Lean_Omega_Constraint_sat_x27.exit

8:                                                ; preds = %3
  %9 = load i32, ptr %4, align 4, !tbaa !6
  %10 = icmp sgt i32 %9, 1
  br i1 %10, label %11, label %13, !prof !5

11:                                               ; preds = %8
  %12 = add nsw i32 %9, -1
  store i32 %12, ptr %4, align 4, !tbaa !6
  br label %l_Lean_Omega_Constraint_sat_x27.exit

13:                                               ; preds = %8
  %.not.i.i = icmp eq i32 %9, 0
  br i1 %.not.i.i, label %l_Lean_Omega_Constraint_sat_x27.exit, label %14

14:                                               ; preds = %13
  tail call void @lean_dec_ref_cold(ptr noundef nonnull %4) #4
  br label %l_Lean_Omega_Constraint_sat_x27.exit

l_Lean_Omega_Constraint_sat_x27.exit:             ; preds = %3, %11, %13, %14
  %15 = ptrtoint ptr %1 to i64
  %16 = and i64 %15, 1
  %.not = icmp eq i64 %16, 0
  br i1 %.not, label %17, label %lean_dec.exit6

17:                                               ; preds = %l_Lean_Omega_Constraint_sat_x27.exit
  %18 = load i32, ptr %1, align 4, !tbaa !6
  %19 = icmp sgt i32 %18, 1
  br i1 %19, label %20, label %22, !prof !5

20:                                               ; preds = %17
  %21 = add nsw i32 %18, -1
  store i32 %21, ptr %1, align 4, !tbaa !6
  br label %lean_dec.exit6

22:                                               ; preds = %17
  %.not.i = icmp eq i32 %18, 0
  br i1 %.not.i, label %lean_dec.exit6, label %23

23:                                               ; preds = %22
  tail call void @lean_dec_ref_cold(ptr noundef nonnull %1) #4
  br label %lean_dec.exit6

lean_dec.exit6:                                   ; preds = %23, %22, %20, %l_Lean_Omega_Constraint_sat_x27.exit
  %24 = ptrtoint ptr %0 to i64
  %25 = and i64 %24, 1
  %.not10 = icmp eq i64 %25, 0
  br i1 %.not10, label %26, label %lean_dec.exit

26:                                               ; preds = %lean_dec.exit6
  %27 = load i32, ptr %0, align 4, !tbaa !6
  %28 = icmp sgt i32 %27, 1
  br i1 %28, label %29, label %31, !prof !5

29:                                               ; preds = %26
  %30 = add nsw i32 %27, -1
  store i32 %30, ptr %0, align 4, !tbaa !6
  br label %lean_dec.exit

31:                                               ; preds = %26
  %.not.i7 = icmp eq i32 %27, 0
  br i1 %.not.i7, label %lean_dec.exit, label %32

32:                                               ; preds = %31
  tail call void @lean_dec_ref_cold(ptr noundef nonnull %0) #4
  br label %lean_dec.exit

lean_dec.exit:                                    ; preds = %32, %31, %29, %lean_dec.exit6
  %33 = shl nuw nsw i8 %5, 1
  %34 = or disjoint i8 %33, 1
  %35 = zext nneg i8 %34 to i64
  %36 = inttoptr i64 %35 to ptr
  ret ptr %36
}